target datalayout = "e-m:e-p270:32:32-p271:32:32-p272:64:64-i64:64-i128:128-f80:128-n8:16:32:64-S128"
target triple = "x86_64-pc-linux-gnu"

%"class.std::__shared_count" = type { ptr }
%"class.duckdb::ColumnReader" = type { ptr, ptr, ptr, i64, i8, ptr, ptr, i64, i64, i64, %"class.duckdb::shared_ptr", %"class.duckdb::ResizeableBuffer", i32, %"class.duckdb::unique_ptr.11", %"class.duckdb::unique_ptr.11", %"class.duckdb::DictionaryDecoder", %"class.duckdb::DeltaBinaryPackedDecoder", %"class.duckdb::RLEDecoder", %"class.duckdb::DeltaLengthByteArrayDecoder", %"class.duckdb::DeltaByteArrayDecoder", %"class.duckdb::ByteStreamSplitDecoder", [2 x %"class.duckdb::ResizeableBuffer"] }
%"class.duckdb::shared_ptr" = type { %"class.std::shared_ptr" }
%"class.std::shared_ptr" = type { %"class.std::__shared_ptr" }
%"class.std::__shared_ptr" = type { ptr, %"class.std::__shared_count" }
%"class.duckdb::ResizeableBuffer" = type { %"class.duckdb::ByteBuffer", %"class.duckdb::AllocatedData", i64 }
%"class.duckdb::ByteBuffer" = type { ptr, i64 }
%"class.duckdb::AllocatedData" = type { %"class.duckdb::optional_ptr", ptr, i64 }
%"class.duckdb::optional_ptr" = type { ptr }
%"class.duckdb::unique_ptr.11" = type { %"class.std::unique_ptr.12" }
%"class.std::unique_ptr.12" = type { %"struct.std::__uniq_ptr_data.13" }
%"struct.std::__uniq_ptr_data.13" = type { %"class.std::__uniq_ptr_impl.14" }
%"class.std::__uniq_ptr_impl.14" = type { %"class.std::tuple.15" }
%"class.std::tuple.15" = type { %"struct.std::_Tuple_impl.16" }
%"struct.std::_Tuple_impl.16" = type { %"struct.std::_Head_base.19" }
%"struct.std::_Head_base.19" = type { ptr }
%"class.duckdb::DictionaryDecoder" = type { ptr, ptr, %"class.duckdb::unique_ptr.11", %"struct.duckdb::SelectionVector", %"struct.duckdb::SelectionVector", i64, %"class.duckdb::unique_ptr.24", %"class.duckdb::unique_ptr.33", i64, i8, %"class.std::__cxx11::basic_string" }
%"struct.duckdb::SelectionVector" = type { ptr, %"class.duckdb::shared_ptr.20" }
%"class.duckdb::shared_ptr.20" = type { %"class.std::shared_ptr.21" }
%"class.std::shared_ptr.21" = type { %"class.std::__shared_ptr.22" }
%"class.std::__shared_ptr.22" = type { ptr, %"class.std::__shared_count" }
%"class.duckdb::unique_ptr.24" = type { %"class.std::unique_ptr.25" }
%"class.std::unique_ptr.25" = type { %"struct.std::__uniq_ptr_data.26" }
%"struct.std::__uniq_ptr_data.26" = type { %"class.std::__uniq_ptr_impl.27" }
%"class.std::__uniq_ptr_impl.27" = type { %"class.std::tuple.28" }
%"class.std::tuple.28" = type { %"struct.std::_Tuple_impl.29" }
%"struct.std::_Tuple_impl.29" = type { %"struct.std::_Head_base.32" }
%"struct.std::_Head_base.32" = type { ptr }
%"class.duckdb::unique_ptr.33" = type { %"class.std::unique_ptr.34" }
%"class.std::unique_ptr.34" = type { %"struct.std::__uniq_ptr_data.35" }
%"struct.std::__uniq_ptr_data.35" = type { %"class.std::__uniq_ptr_impl.36" }
%"class.std::__uniq_ptr_impl.36" = type { %"class.std::tuple.37" }
%"class.std::tuple.37" = type { %"struct.std::_Tuple_impl.38" }
%"struct.std::_Tuple_impl.38" = type { %"struct.std::_Head_base.41" }
%"struct.std::_Head_base.41" = type { ptr }
%"class.std::__cxx11::basic_string" = type { %"struct.std::__cxx11::basic_string<char>::_Alloc_hider", i64, %union.anon }
%"struct.std::__cxx11::basic_string<char>::_Alloc_hider" = type { ptr }
%union.anon = type { i64, [8 x i8] }
%"class.duckdb::DeltaBinaryPackedDecoder" = type { ptr, ptr, %"class.duckdb::unique_ptr.42" }
%"class.duckdb::unique_ptr.42" = type { %"class.std::unique_ptr.43" }
%"class.std::unique_ptr.43" = type { %"struct.std::__uniq_ptr_data.44" }
%"struct.std::__uniq_ptr_data.44" = type { %"class.std::__uniq_ptr_impl.45" }
%"class.std::__uniq_ptr_impl.45" = type { %"class.std::tuple.46" }
%"class.std::tuple.46" = type { %"struct.std::_Tuple_impl.47" }
%"struct.std::_Tuple_impl.47" = type { %"struct.std::_Head_base.50" }
%"struct.std::_Head_base.50" = type { ptr }
%"class.duckdb::RLEDecoder" = type { ptr, ptr, %"class.duckdb::unique_ptr.11" }
%"class.duckdb::DeltaLengthByteArrayDecoder" = type { ptr, ptr, i64, i64 }
%"class.duckdb::DeltaByteArrayDecoder" = type { ptr, %"class.duckdb::unique_ptr.24", i64, i64 }
%"class.duckdb::ByteStreamSplitDecoder" = type { ptr, ptr, %"class.duckdb::unique_ptr.51" }
%"class.duckdb::unique_ptr.51" = type { %"class.std::unique_ptr.52" }
%"class.std::unique_ptr.52" = type { %"struct.std::__uniq_ptr_data.53" }
%"struct.std::__uniq_ptr_data.53" = type { %"class.std::__uniq_ptr_impl.54" }
%"class.std::__uniq_ptr_impl.54" = type { %"class.std::tuple.55" }
%"class.std::tuple.55" = type { %"struct.std::_Tuple_impl.56" }
%"struct.std::_Tuple_impl.56" = type { %"struct.std::_Head_base.59" }
%"struct.std::_Head_base.59" = type { ptr }
%"class.duckdb::StructColumnReader" = type { %"class.duckdb::ColumnReader", %"class.duckdb::vector.340" }
%"class.duckdb::vector.340" = type { %"class.std::vector.341" }
%"class.std::vector.341" = type { %"struct.std::_Vector_base.342" }
%"struct.std::_Vector_base.342" = type { %"struct.std::_Vector_base<duckdb::unique_ptr<duckdb::ColumnReader>, std::allocator<duckdb::unique_ptr<duckdb::ColumnReader>>>::_Vector_impl" }
%"struct.std::_Vector_base<duckdb::unique_ptr<duckdb::ColumnReader>, std::allocator<duckdb::unique_ptr<duckdb::ColumnReader>>>::_Vector_impl" = type { %"struct.std::_Vector_base<duckdb::unique_ptr<duckdb::ColumnReader>, std::allocator<duckdb::unique_ptr<duckdb::ColumnReader>>>::_Vector_impl_data" }
%"struct.std::_Vector_base<duckdb::unique_ptr<duckdb::ColumnReader>, std::allocator<duckdb::unique_ptr<duckdb::ColumnReader>>>::_Vector_impl_data" = type { ptr, ptr, ptr }

; Function Attrs: mustprogress nounwind uwtable
define linkonce_odr void @_ZNSt15__new_allocatorIN6duckdb10unique_ptrINS0_12ColumnReaderESt14default_deleteIS2_ELb1EEEEC2ERKS6_(ptr noundef nonnull align 1 dereferenceable(1) %0, ptr noundef nonnull align 1 dereferenceable(1) %1) unnamed_addr #7 comdat align 2 {
  %3 = alloca ptr, align 8
  %4 = alloca ptr, align 8
  store ptr %0, ptr %3, align 8, !tbaa !588
  store ptr %1, ptr %4, align 8, !tbaa !588
  ret void
}

; Function Attrs: mustprogress nounwind uwtable
define linkonce_odr void @_ZNSt12_Vector_baseIN6duckdb10unique_ptrINS0_12ColumnReaderESt14default_deleteIS2_ELb1EEESaIS5_EE17_Vector_impl_dataC2EOS8_(ptr noundef nonnull align 8 dereferenceable(24) %0, ptr noundef nonnull align 8 dereferenceable(24) %1) unnamed_addr #7 comdat align 2 {
  %3 = alloca ptr, align 8
  %4 = alloca ptr, align 8
  store ptr %0, ptr %3, align 8, !tbaa !585
  store ptr %1, ptr %4, align 8, !tbaa !585
  %5 = load ptr, ptr %3, align 8
  %6 = getelementptr inbounds nuw %"struct.std::_Vector_base<duckdb::unique_ptr<duckdb::ColumnReader>, std::allocator<duckdb::unique_ptr<duckdb::ColumnReader>>>::_Vector_impl_data", ptr %5, i32 0, i32 0
  %7 = load ptr, ptr %4, align 8, !tbaa !585
  %8 = getelementptr inbounds nuw %"struct.std::_Vector_base<duckdb::unique_ptr<duckdb::ColumnReader>, std::allocator<duckdb::unique_ptr<duckdb::ColumnReader>>>::_Vector_impl_data", ptr %7, i32 0, i32 0
  %9 = load ptr, ptr %8, align 8, !tbaa !397
  store ptr %9, ptr %6, align 8, !tbaa !397
  %10 = getelementptr inbounds nuw %"struct.std::_Vector_base<duckdb::unique_ptr<duckdb::ColumnReader>, std::allocator<duckdb::unique_ptr<duckdb::ColumnReader>>>::_Vector_impl_data", ptr %5, i32 0, i32 1
  %11 = load ptr, ptr %4, align 8, !tbaa !585
  %12 = getelementptr inbounds nuw %"struct.std::_Vector_base<duckdb::unique_ptr<duckdb::ColumnReader>, std::allocator<duckdb::unique_ptr<duckdb::ColumnReader>>>::_Vector_impl_data", ptr %11, i32 0, i32 1
  %13 = load ptr, ptr %12, align 8, !tbaa !395
  store ptr %13, ptr %10, align 8, !tbaa !395
  %14 = getelementptr inbounds nuw %"struct.std::_Vector_base<duckdb::unique_ptr<duckdb::ColumnReader>, std::allocator<duckdb::unique_ptr<duckdb::ColumnReader>>>::_Vector_impl_data", ptr %5, i32 0, i32 2
  %15 = load ptr, ptr %4, align 8, !tbaa !585
  %16 = getelementptr inbounds nuw %"struct.std::_Vector_base<duckdb::unique_ptr<duckdb::ColumnReader>, std::allocator<duckdb::unique_ptr<duckdb::ColumnReader>>>::_Vector_impl_data", ptr %15, i32 0, i32 2
  %17 = load ptr, ptr %16, align 8, !tbaa !587
  store ptr %17, ptr %14, align 8, !tbaa !587
  %18 = load ptr, ptr %4, align 8, !tbaa !585
  %19 = getelementptr inbounds nuw %"struct.std::_Vector_base<duckdb::unique_ptr<duckdb::ColumnReader>, std::allocator<duckdb::unique_ptr<duckdb::ColumnReader>>>::_Vector_impl_data", ptr %18, i32 0, i32 2
  store ptr null, ptr %19, align 8, !tbaa !587
  %20 = load ptr, ptr %4, align 8, !tbaa !585
  %21 = getelementptr inbounds nuw %"struct.std::_Vector_base<duckdb::unique_ptr<duckdb::ColumnReader>, std::allocator<duckdb::unique_ptr<duckdb::ColumnReader>>>::_Vector_impl_data", ptr %20, i32 0, i32 1
  store ptr null, ptr %21, align 8, !tbaa !395
  %22 = load ptr, ptr %4, align 8, !tbaa !585
  %23 = getelementptr inbounds nuw %"struct.std::_Vector_base<duckdb::unique_ptr<duckdb::ColumnReader>, std::allocator<duckdb::unique_ptr<duckdb::ColumnReader>>>::_Vector_impl_data", ptr %22, i32 0, i32 0
  store ptr null, ptr %23, align 8, !tbaa !397
  ret void
}

; Function Attrs: mustprogress nounwind uwtable
define linkonce_odr void @_ZNSaIN6duckdb10unique_ptrINS_12ColumnReaderESt14default_deleteIS1_ELb1EEEEC2ERKS5_(ptr noundef nonnull align 1 dereferenceable(1) %0, ptr noundef nonnull align 1 dereferenceable(1) %1) unnamed_addr #7 comdat align 2 {
  %3 = alloca ptr, align 8
  %4 = alloca ptr, align 8
  store ptr %0, ptr %3, align 8, !tbaa !583
  store ptr %1, ptr %4, align 8, !tbaa !583
  %5 = load ptr, ptr %3, align 8
  %6 = load ptr, ptr %4, align 8, !tbaa !583
  call void @_ZNSt15__new_allocatorIN6duckdb10unique_ptrINS0_12ColumnReaderESt14default_deleteIS2_ELb1EEEEC2ERKS6_(ptr noundef nonnull align 1 dereferenceable(1) %5, ptr noundef nonnull align 1 dereferenceable(1) %6) #3
  ret void
}

; Function Attrs: mustprogress nounwind uwtable
define linkonce_odr void @_ZNSt12_Vector_baseIN6duckdb10unique_ptrINS0_12ColumnReaderESt14default_deleteIS2_ELb1EEESaIS5_EE12_Vector_implC2EOS8_(ptr noundef nonnull align 8 dereferenceable(24) %0, ptr noundef nonnull align 8 dereferenceable(24) %1) unnamed_addr #7 comdat align 2 {
  %3 = alloca ptr, align 8
  %4 = alloca ptr, align 8
  store ptr %0, ptr %3, align 8, !tbaa !581
  store ptr %1, ptr %4, align 8, !tbaa !581
  %5 = load ptr, ptr %3, align 8
  %6 = load ptr, ptr %4, align 8, !tbaa !581
  call void @_ZNSaIN6duckdb10unique_ptrINS_12ColumnReaderESt14default_deleteIS1_ELb1EEEEC2ERKS5_(ptr noundef nonnull align 1 dereferenceable(1) %5, ptr noundef nonnull align 1 dereferenceable(1) %6) #3
  %7 = load ptr, ptr %4, align 8, !tbaa !581
  call void @_ZNSt12_Vector_baseIN6duckdb10unique_ptrINS0_12ColumnReaderESt14default_deleteIS2_ELb1EEESaIS5_EE17_Vector_impl_dataC2EOS8_(ptr noundef nonnull align 8 dereferenceable(24) %5, ptr noundef nonnull align 8 dereferenceable(24) %7) #3
  ret void
}

; Function Attrs: mustprogress nounwind uwtable
define linkonce_odr void @_ZNSt12_Vector_baseIN6duckdb10unique_ptrINS0_12ColumnReaderESt14default_deleteIS2_ELb1EEESaIS5_EEC2EOS7_(ptr noundef nonnull align 8 dereferenceable(24) %0, ptr noundef nonnull align 8 dereferenceable(24) %1) unnamed_addr #7 comdat align 2 {
  %3 = alloca ptr, align 8
  %4 = alloca ptr, align 8
  store ptr %0, ptr %3, align 8, !tbaa !579
  store ptr %1, ptr %4, align 8, !tbaa !579
  %5 = load ptr, ptr %3, align 8
  %6 = getelementptr inbounds nuw %"struct.std::_Vector_base.342", ptr %5, i32 0, i32 0
  %7 = load ptr, ptr %4, align 8, !tbaa !579
  %8 = getelementptr inbounds nuw %"struct.std::_Vector_base.342", ptr %7, i32 0, i32 0
  call void @_ZNSt12_Vector_baseIN6duckdb10unique_ptrINS0_12ColumnReaderESt14default_deleteIS2_ELb1EEESaIS5_EE12_Vector_implC2EOS8_(ptr noundef nonnull align 8 dereferenceable(24) %6, ptr noundef nonnull align 8 dereferenceable(24) %8) #3
  ret void
}

; Function Attrs: mustprogress nounwind uwtable
define linkonce_odr void @_ZNSt6vectorIN6duckdb10unique_ptrINS0_12ColumnReaderESt14default_deleteIS2_ELb1EEESaIS5_EEC2EOS7_(ptr noundef nonnull align 8 dereferenceable(24) %0, ptr noundef nonnull align 8 dereferenceable(24) %1) unnamed_addr #7 comdat align 2 {
  %3 = alloca ptr, align 8
  %4 = alloca ptr, align 8
  store ptr %0, ptr %3, align 8, !tbaa !379
  store ptr %1, ptr %4, align 8, !tbaa !379
  %5 = load ptr, ptr %3, align 8
  %6 = load ptr, ptr %4, align 8, !tbaa !379
  call void @_ZNSt12_Vector_baseIN6duckdb10unique_ptrINS0_12ColumnReaderESt14default_deleteIS2_ELb1EEESaIS5_EEC2EOS7_(ptr noundef nonnull align 8 dereferenceable(24) %5, ptr noundef nonnull align 8 dereferenceable(24) %6) #3
  ret void
}

; Function Attrs: inlinehint mustprogress nounwind uwtable
define linkonce_odr void @_ZN6duckdb6vectorINS_10unique_ptrINS_12ColumnReaderESt14default_deleteIS2_ELb1EEELb1EEC2EOS6_(ptr noundef nonnull align 8 dereferenceable(24) %0, ptr noundef nonnull align 8 dereferenceable(24) %1) unnamed_addr #5 comdat align 2 {
  %3 = alloca ptr, align 8
  %4 = alloca ptr, align 8
  store ptr %0, ptr %3, align 8, !tbaa !375
  store ptr %1, ptr %4, align 8, !tbaa !375
  %5 = load ptr, ptr %3, align 8
  %6 = load ptr, ptr %4, align 8, !tbaa !375
  call void @_ZNSt6vectorIN6duckdb10unique_ptrINS0_12ColumnReaderESt14default_deleteIS2_ELb1EEESaIS5_EEC2EOS7_(ptr noundef nonnull align 8 dereferenceable(24) %5, ptr noundef nonnull align 8 dereferenceable(24) %6) #3
  ret void
}

; Function Attrs: mustprogress uwtable
define void @_ZN6duckdb18StructColumnReaderC2ERNS_13ParquetReaderERKNS_19ParquetColumnSchemaENS_6vectorINS_10unique_ptrINS_12ColumnReaderESt14default_deleteIS8_ELb1EEELb1EEE(ptr noundef nonnull align 8 dereferenceable(568) %0, ptr noundef nonnull align 8 dereferenceable(560) %1, ptr noundef nonnull align 8 dereferenceable(144) %2, ptr noundef %3) unnamed_addr #4 align 2 {
  %5 = alloca ptr, align 8
  %6 = alloca ptr, align 8
  %7 = alloca ptr, align 8
  %8 = alloca ptr, align 8
  store ptr %0, ptr %5, align 8, !tbaa !373
  store ptr %1, ptr %6, align 8, !tbaa !255
  store ptr %2, ptr %7, align 8, !tbaa !185
  store ptr %3, ptr %8, align 8, !tbaa !375
  %9 = load ptr, ptr %5, align 8
  %10 = load ptr, ptr %6, align 8, !tbaa !255
  %11 = load ptr, ptr %7, align 8, !tbaa !185
  call void @_ZN6duckdb12ColumnReaderC2ERNS_13ParquetReaderERKNS_19ParquetColumnSchemaE(ptr noundef nonnull align 8 dereferenceable(544) %9, ptr noundef nonnull align 8 dereferenceable(560) %10, ptr noundef nonnull align 8 dereferenceable(144) %11)
  store ptr getelementptr inbounds inrange(-16, 152) ({ [21 x ptr] }, ptr @_ZTVN6duckdb18StructColumnReaderE, i32 0, i32 0, i32 2), ptr %9, align 8, !tbaa !12
  %12 = getelementptr inbounds nuw %"class.duckdb::StructColumnReader", ptr %9, i32 0, i32 1
  call void @_ZN6duckdb6vectorINS_10unique_ptrINS_12ColumnReaderESt14default_deleteIS2_ELb1EEELb1EEC2EOS6_(ptr noundef nonnull align 8 dereferenceable(24) %12, ptr noundef nonnull align 8 dereferenceable(24) %3) #3
  ret void
}