; Function Attrs: mustprogress uwtable
define void @_ZN6duckdb18StructColumnReaderC2ERNS_13ParquetReaderERKNS_19ParquetColumnSchemaENS_6vectorINS_10unique_ptrINS_12ColumnReaderESt14default_deleteIS8_ELb1EEELb1EEE(ptr noundef nonnull align 8 dereferenceable(568) %0, ptr noundef nonnull align 8 dereferenceable(560) %1, ptr noundef nonnull align 8 dereferenceable(144) %2, ptr noundef captures(none) %3) unnamed_addr #3 align 2 {
  tail call void @_ZN6duckdb12ColumnReaderC2ERNS_13ParquetReaderERKNS_19ParquetColumnSchemaE(ptr noundef nonnull align 8 dereferenceable(544) %0, ptr noundef nonnull align 8 dereferenceable(560) %1, ptr noundef nonnull align 8 dereferenceable(144) %2)
  store ptr getelementptr inbounds nuw inrange(-16, 152) (i8, ptr @_ZTVN6duckdb18StructColumnReaderE, i64 16), ptr %0, align 8, !tbaa !3
  %5 = getelementptr inbounds nuw i8, ptr %0, i64 544
  %6 = load ptr, ptr %3, align 8, !tbaa !392
  store ptr %6, ptr %5, align 8, !tbaa !392
  %7 = getelementptr inbounds nuw i8, ptr %0, i64 552
  %8 = getelementptr inbounds nuw i8, ptr %3, i64 8
  %9 = load ptr, ptr %8, align 8, !tbaa !395
  store ptr %9, ptr %7, align 8, !tbaa !395
  %10 = getelementptr inbounds nuw i8, ptr %0, i64 560
  %11 = getelementptr inbounds nuw i8, ptr %3, i64 16
  %12 = load ptr, ptr %11, align 8, !tbaa !396
  store ptr %12, ptr %10, align 8, !tbaa !396
  tail call void @llvm.memset.p0.i64(ptr noundef nonnull align 8 dereferenceable(24) %3, i8 0, i64 24, i1 false)
  ret void
}